(dp0
S'OriginalConfig'
p1
ccopy_reg
_reconstructor
p2
(cWMCore.Configuration
Configuration
p3
c__builtin__
object
p4
Ntp5
Rp6
(dp7
S'Site'
p8
g2
(cWMCore.Configuration
ConfigSection
p9
g4
Ntp10
Rp11
(dp12
S'_internal_skipChecks'
p13
I00
sS'_internal_documentation'
p14
S''
p15
sS'_internal_settings'
p16
c__builtin__
set
p17
((lp18
S'storageSite'
p19
atp20
Rp21
sS'_internal_name'
p22
g8
sS'_internal_docstrings'
p23
(dp24
sS'_internal_children'
p25
g17
((lp26
tp27
Rp28
sg19
S'T3_US_Rutgers'
p29
sS'_internal_parent_ref'
p30
NsbsS'_internal_sections'
p31
(lp32
S'General'
p33
aS'JobType'
p34
aS'Data'
p35
ag8
aS'User'
p36
aS'Debug'
p37
asg36
g2
(g9
g4
Ntp38
Rp39
(dp40
g13
I00
sg14
g15
sg16
g17
((lp41
tp42
Rp43
sg22
g36
sg23
(dp44
sg25
g17
((lp45
tp46
Rp47
sg30
Nsbsg37
g2
(g9
g4
Ntp48
Rp49
(dp50
g13
I00
sg14
g15
sg16
g17
((lp51
tp52
Rp53
sg22
g37
sg23
(dp54
sg25
g17
((lp55
tp56
Rp57
sg30
Nsbsg33
g2
(g9
g4
Ntp58
Rp59
(dp60
S'workArea'
p61
S'crab_projects'
p62
sg13
I00
sg14
g15
sg16
g17
((lp63
g61
aS'transferOutputs'
p64
aS'transferLogs'
p65
aS'requestName'
p66
atp67
Rp68
sg22
g33
sg23
(dp69
sg64
I01
sg25
g17
((lp70
tp71
Rp72
sg66
S'QCD_HT500to700_TuneCP5_13TeV-madgraphMLM-pythia8-v2'
p73
sg30
Nsg65
I00
sbsg35
g2
(g9
g4
Ntp74
Rp75
(dp76
S'inputDataset'
p77
S'/QCD_HT500to700_TuneCP5_13TeV-madgraphMLM-pythia8/RunIISummer20UL18MiniAODv2-106X_upgrade2018_realistic_v16_L1v1-v2/MINIAODSIM'
p78
sS'outputDatasetTag'
p79
S'DeepNtuplesAK8-QCD_RunIISummer20UL18MiniAODv2-106X_v1-v2'
p80
sg13
I00
sS'splitting'
p81
S'FileBased'
p82
sS'unitsPerJob'
p83
I1
sg14
g15
sg16
g17
((lp84
g77
ag79
aS'publication'
p85
ag83
ag81
aS'inputDBS'
p86
aS'allowNonValidInputDataset'
p87
aS'outLFNDirBase'
p88
atp89
Rp90
sg22
g35
sg86
S'global'
p91
sg23
(dp92
sg87
I01
sg25
g17
((lp93
tp94
Rp95
sg88
S'/store/user/akobert/crab_output/UL/Ntupler/QCD/500to700/'
p96
sg30
Nsg85
I00
sbsg34
g2
(g9
g4
Ntp97
Rp98
(dp99
S'numCores'
p100
I1
sg13
I00
sS'maxMemoryMB'
p101
I2500
sg14
g15
sg16
g17
((lp102
g100
aS'sendExternalFolder'
p103
aS'pyCfgParams'
p104
aS'pluginName'
p105
aS'allowUndistributedCMSSW'
p106
aS'psetName'
p107
ag101
atp108
Rp109
sg22
g34
sg105
S'Analysis'
p110
sg23
(dp111
sg104
(lp112
S'inputDataset=/QCD_HT500to700_TuneCP5_13TeV-madgraphMLM-pythia8/RunIISummer20UL18MiniAODv2-106X_upgrade2018_realistic_v16_L1v1-v2/MINIAODSIM'
p113
asg25
g17
((lp114
tp115
Rp116
sg106
I01
sg107
S'../QCD/500to700/DeepNtuplizerAK8.py'
p117
sg30
Nsg103
I00
sbsbsS'voGroup'
p118
g15
sS'Server'
p119
S'cmsweb.cern.ch'
p120
sS'instance'
p121
S'prod'
p122
sS'RequestName'
p123
V240924_232801:akobert_crab_QCD_HT500to700_TuneCP5_13TeV-madgraphMLM-pythia8-v2
p124
sS'voRole'
p125
S'NULL'
p126
sS'Port'
p127
g15
s.